target datalayout = "e-m:e-p270:32:32-p271:32:32-p272:64:64-i64:64-i128:128-f80:128-n8:16:32:64-S128"
target triple = "x86_64-pc-linux-gnu"

%struct.Vec_Ptr_t_ = type { i32, i32, ptr }
%struct.Abc_Ntk_t_ = type { i32, i32, ptr, ptr, ptr, ptr, ptr, ptr, ptr, ptr, ptr, ptr, ptr, [11 x i32], i32, i32, i32, i32, ptr, i32, ptr, ptr, i32, i32, i32, double, i32, %struct.Vec_Int_t_, ptr, ptr, ptr, ptr, ptr, float, i32, ptr, ptr, ptr, ptr, ptr, ptr, ptr, ptr, ptr, ptr, ptr, ptr, ptr, ptr, ptr, ptr, ptr, ptr, ptr, ptr, ptr, ptr }
%struct.Vec_Int_t_ = type { i32, i32, ptr }
%struct.Vec_Vec_t_ = type { i32, i32, ptr }
%struct.Sim_Man_t_ = type { ptr, i32, i32, i32, i32, i32, ptr, ptr, i32, i32, ptr, ptr, ptr, i32, ptr, ptr, ptr, i32, i32, i32, i64, i64, i64, i64, i64 }

; Function Attrs: inlinehint nounwind uwtable
define internal ptr @Vec_VecAlloc(i32 noundef %0) #5 {
  %2 = alloca i32, align 4
  %3 = alloca ptr, align 8
  store i32 %0, ptr %2, align 4, !tbaa !8
  call void @llvm.lifetime.start.p0(i64 8, ptr %3) #10
  %4 = call noalias ptr @malloc(i64 noundef 16) #11
  store ptr %4, ptr %3, align 8, !tbaa !63
  %5 = load i32, ptr %2, align 4, !tbaa !8
  %6 = icmp sgt i32 %5, 0
  br i1 %6, label %7, label %11

7:                                                ; preds = %1
  %8 = load i32, ptr %2, align 4, !tbaa !8
  %9 = icmp slt i32 %8, 8
  br i1 %9, label %10, label %11

10:                                               ; preds = %7
  store i32 8, ptr %2, align 4, !tbaa !8
  br label %11

11:                                               ; preds = %10, %7, %1
  %12 = load ptr, ptr %3, align 8, !tbaa !63
  %13 = getelementptr inbounds nuw %struct.Vec_Vec_t_, ptr %12, i32 0, i32 1
  store i32 0, ptr %13, align 4, !tbaa !67
  %14 = load i32, ptr %2, align 4, !tbaa !8
  %15 = load ptr, ptr %3, align 8, !tbaa !63
  %16 = getelementptr inbounds nuw %struct.Vec_Vec_t_, ptr %15, i32 0, i32 0
  store i32 %14, ptr %16, align 8, !tbaa !121
  %17 = load ptr, ptr %3, align 8, !tbaa !63
  %18 = getelementptr inbounds nuw %struct.Vec_Vec_t_, ptr %17, i32 0, i32 0
  %19 = load i32, ptr %18, align 8, !tbaa !121
  %20 = icmp ne i32 %19, 0
  br i1 %20, label %21, label %28

21:                                               ; preds = %11
  %22 = load ptr, ptr %3, align 8, !tbaa !63
  %23 = getelementptr inbounds nuw %struct.Vec_Vec_t_, ptr %22, i32 0, i32 0
  %24 = load i32, ptr %23, align 8, !tbaa !121
  %25 = sext i32 %24 to i64
  %26 = mul i64 8, %25
  %27 = call noalias ptr @malloc(i64 noundef %26) #11
  br label %29

28:                                               ; preds = %11
  br label %29

29:                                               ; preds = %28, %21
  %30 = phi ptr [ %27, %21 ], [ null, %28 ]
  %31 = load ptr, ptr %3, align 8, !tbaa !63
  %32 = getelementptr inbounds nuw %struct.Vec_Vec_t_, ptr %31, i32 0, i32 2
  store ptr %30, ptr %32, align 8, !tbaa !64
  %33 = load ptr, ptr %3, align 8, !tbaa !63
  call void @llvm.lifetime.end.p0(i64 8, ptr %3) #10
  ret ptr %33
}

; Function Attrs: inlinehint nounwind uwtable
define internal i32 @Vec_PtrSize(ptr noundef %0) #5 {
  %2 = alloca ptr, align 8
  store ptr %0, ptr %2, align 8, !tbaa !58
  %3 = load ptr, ptr %2, align 8, !tbaa !58
  %4 = getelementptr inbounds nuw %struct.Vec_Ptr_t_, ptr %3, i32 0, i32 1
  %5 = load i32, ptr %4, align 4, !tbaa !59
  ret i32 %5
}

; Function Attrs: inlinehint nounwind uwtable
define internal ptr @Vec_VecStart(i32 noundef %0) #5 {
  %2 = alloca i32, align 4
  %3 = alloca ptr, align 8
  %4 = alloca i32, align 4
  store i32 %0, ptr %2, align 4, !tbaa !8
  call void @llvm.lifetime.start.p0(i64 8, ptr %3) #10
  call void @llvm.lifetime.start.p0(i64 4, ptr %4) #10
  %5 = load i32, ptr %2, align 4, !tbaa !8
  %6 = call ptr @Vec_VecAlloc(i32 noundef %5)
  store ptr %6, ptr %3, align 8, !tbaa !63
  store i32 0, ptr %4, align 4, !tbaa !8
  br label %7

7:                                                ; preds = %19, %1
  %8 = load i32, ptr %4, align 4, !tbaa !8
  %9 = load i32, ptr %2, align 4, !tbaa !8
  %10 = icmp slt i32 %8, %9
  br i1 %10, label %11, label %22

11:                                               ; preds = %7
  %12 = call ptr @Vec_PtrAlloc(i32 noundef 0)
  %13 = load ptr, ptr %3, align 8, !tbaa !63
  %14 = getelementptr inbounds nuw %struct.Vec_Vec_t_, ptr %13, i32 0, i32 2
  %15 = load ptr, ptr %14, align 8, !tbaa !64
  %16 = load i32, ptr %4, align 4, !tbaa !8
  %17 = sext i32 %16 to i64
  %18 = getelementptr inbounds ptr, ptr %15, i64 %17
  store ptr %12, ptr %18, align 8, !tbaa !31
  br label %19

19:                                               ; preds = %11
  %20 = load i32, ptr %4, align 4, !tbaa !8
  %21 = add nsw i32 %20, 1
  store i32 %21, ptr %4, align 4, !tbaa !8
  br label %7, !llvm.loop !66

22:                                               ; preds = %7
  %23 = load i32, ptr %2, align 4, !tbaa !8
  %24 = load ptr, ptr %3, align 8, !tbaa !63
  %25 = getelementptr inbounds nuw %struct.Vec_Vec_t_, ptr %24, i32 0, i32 1
  store i32 %23, ptr %25, align 4, !tbaa !67
  %26 = load ptr, ptr %3, align 8, !tbaa !63
  call void @llvm.lifetime.end.p0(i64 4, ptr %4) #10
  call void @llvm.lifetime.end.p0(i64 8, ptr %3) #10
  ret ptr %26
}

; Function Attrs: inlinehint nounwind uwtable
define internal ptr @Vec_IntAlloc(i32 noundef %0) #5 {
  %2 = alloca i32, align 4
  %3 = alloca ptr, align 8
  store i32 %0, ptr %2, align 4, !tbaa !8
  call void @llvm.lifetime.start.p0(i64 8, ptr %3) #10
  %4 = call noalias ptr @malloc(i64 noundef 16) #11
  store ptr %4, ptr %3, align 8, !tbaa !60
  %5 = load i32, ptr %2, align 4, !tbaa !8
  %6 = icmp sgt i32 %5, 0
  br i1 %6, label %7, label %11

7:                                                ; preds = %1
  %8 = load i32, ptr %2, align 4, !tbaa !8
  %9 = icmp slt i32 %8, 16
  br i1 %9, label %10, label %11

10:                                               ; preds = %7
  store i32 16, ptr %2, align 4, !tbaa !8
  br label %11

11:                                               ; preds = %10, %7, %1
  %12 = load ptr, ptr %3, align 8, !tbaa !60
  %13 = getelementptr inbounds nuw %struct.Vec_Int_t_, ptr %12, i32 0, i32 1
  store i32 0, ptr %13, align 4, !tbaa !61
  %14 = load i32, ptr %2, align 4, !tbaa !8
  %15 = load ptr, ptr %3, align 8, !tbaa !60
  %16 = getelementptr inbounds nuw %struct.Vec_Int_t_, ptr %15, i32 0, i32 0
  store i32 %14, ptr %16, align 8, !tbaa !108
  %17 = load ptr, ptr %3, align 8, !tbaa !60
  %18 = getelementptr inbounds nuw %struct.Vec_Int_t_, ptr %17, i32 0, i32 0
  %19 = load i32, ptr %18, align 8, !tbaa !108
  %20 = icmp ne i32 %19, 0
  br i1 %20, label %21, label %28

21:                                               ; preds = %11
  %22 = load ptr, ptr %3, align 8, !tbaa !60
  %23 = getelementptr inbounds nuw %struct.Vec_Int_t_, ptr %22, i32 0, i32 0
  %24 = load i32, ptr %23, align 8, !tbaa !108
  %25 = sext i32 %24 to i64
  %26 = mul i64 4, %25
  %27 = call noalias ptr @malloc(i64 noundef %26) #11
  br label %29

28:                                               ; preds = %11
  br label %29

29:                                               ; preds = %28, %21
  %30 = phi ptr [ %27, %21 ], [ null, %28 ]
  %31 = load ptr, ptr %3, align 8, !tbaa !60
  %32 = getelementptr inbounds nuw %struct.Vec_Int_t_, ptr %31, i32 0, i32 2
  store ptr %30, ptr %32, align 8, !tbaa !62
  %33 = load ptr, ptr %3, align 8, !tbaa !60
  call void @llvm.lifetime.end.p0(i64 8, ptr %3) #10
  ret ptr %33
}

; Function Attrs: inlinehint nounwind uwtable
define internal ptr @Vec_PtrAlloc(i32 noundef %0) #5 {
  %2 = alloca i32, align 4
  %3 = alloca ptr, align 8
  store i32 %0, ptr %2, align 4, !tbaa !8
  call void @llvm.lifetime.start.p0(i64 8, ptr %3) #10
  %4 = call noalias ptr @malloc(i64 noundef 16) #11
  store ptr %4, ptr %3, align 8, !tbaa !58
  %5 = load i32, ptr %2, align 4, !tbaa !8
  %6 = icmp sgt i32 %5, 0
  br i1 %6, label %7, label %11

7:                                                ; preds = %1
  %8 = load i32, ptr %2, align 4, !tbaa !8
  %9 = icmp slt i32 %8, 8
  br i1 %9, label %10, label %11

10:                                               ; preds = %7
  store i32 8, ptr %2, align 4, !tbaa !8
  br label %11

11:                                               ; preds = %10, %7, %1
  %12 = load ptr, ptr %3, align 8, !tbaa !58
  %13 = getelementptr inbounds nuw %struct.Vec_Ptr_t_, ptr %12, i32 0, i32 1
  store i32 0, ptr %13, align 4, !tbaa !59
  %14 = load i32, ptr %2, align 4, !tbaa !8
  %15 = load ptr, ptr %3, align 8, !tbaa !58
  %16 = getelementptr inbounds nuw %struct.Vec_Ptr_t_, ptr %15, i32 0, i32 0
  store i32 %14, ptr %16, align 8, !tbaa !107
  %17 = load ptr, ptr %3, align 8, !tbaa !58
  %18 = getelementptr inbounds nuw %struct.Vec_Ptr_t_, ptr %17, i32 0, i32 0
  %19 = load i32, ptr %18, align 8, !tbaa !107
  %20 = icmp ne i32 %19, 0
  br i1 %20, label %21, label %28

21:                                               ; preds = %11
  %22 = load ptr, ptr %3, align 8, !tbaa !58
  %23 = getelementptr inbounds nuw %struct.Vec_Ptr_t_, ptr %22, i32 0, i32 0
  %24 = load i32, ptr %23, align 8, !tbaa !107
  %25 = sext i32 %24 to i64
  %26 = mul i64 8, %25
  %27 = call noalias ptr @malloc(i64 noundef %26) #11
  br label %29

28:                                               ; preds = %11
  br label %29

29:                                               ; preds = %28, %21
  %30 = phi ptr [ %27, %21 ], [ null, %28 ]
  %31 = load ptr, ptr %3, align 8, !tbaa !58
  %32 = getelementptr inbounds nuw %struct.Vec_Ptr_t_, ptr %31, i32 0, i32 2
  store ptr %30, ptr %32, align 8, !tbaa !29
  %33 = load ptr, ptr %3, align 8, !tbaa !58
  call void @llvm.lifetime.end.p0(i64 8, ptr %3) #10
  ret ptr %33
}

; Function Attrs: inlinehint nounwind uwtable
define internal i32 @Abc_NtkObjNumMax(ptr noundef %0) #5 {
  %2 = alloca ptr, align 8
  store ptr %0, ptr %2, align 8, !tbaa !3
  %3 = load ptr, ptr %2, align 8, !tbaa !3
  %4 = getelementptr inbounds nuw %struct.Abc_Ntk_t_, ptr %3, i32 0, i32 5
  %5 = load ptr, ptr %4, align 8, !tbaa !57
  %6 = call i32 @Vec_PtrSize(ptr noundef %5)
  ret i32 %6
}

; Function Attrs: inlinehint nounwind uwtable
define internal i32 @Abc_NtkCoNum(ptr noundef %0) #5 {
  %2 = alloca ptr, align 8
  store ptr %0, ptr %2, align 8, !tbaa !3
  %3 = load ptr, ptr %2, align 8, !tbaa !3
  %4 = getelementptr inbounds nuw %struct.Abc_Ntk_t_, ptr %3, i32 0, i32 9
  %5 = load ptr, ptr %4, align 8, !tbaa !56
  %6 = call i32 @Vec_PtrSize(ptr noundef %5)
  ret i32 %6
}

; Function Attrs: inlinehint nounwind uwtable
define internal i32 @Abc_NtkCiNum(ptr noundef %0) #5 {
  %2 = alloca ptr, align 8
  store ptr %0, ptr %2, align 8, !tbaa !3
  %3 = load ptr, ptr %2, align 8, !tbaa !3
  %4 = getelementptr inbounds nuw %struct.Abc_Ntk_t_, ptr %3, i32 0, i32 8
  %5 = load ptr, ptr %4, align 8, !tbaa !43
  %6 = call i32 @Vec_PtrSize(ptr noundef %5)
  ret i32 %6
}

; Function Attrs: nounwind uwtable
define ptr @Sim_ManStart(ptr noundef %0, i32 noundef %1) #0 {
  %3 = alloca ptr, align 8
  %4 = alloca i32, align 4
  %5 = alloca ptr, align 8
  store ptr %0, ptr %3, align 8, !tbaa !3
  store i32 %1, ptr %4, align 4, !tbaa !8
  call void @llvm.lifetime.start.p0(i64 8, ptr %5) #10
  %6 = call noalias ptr @malloc(i64 noundef 168) #11
  store ptr %6, ptr %5, align 8, !tbaa !87
  %7 = load ptr, ptr %5, align 8, !tbaa !87
  call void @llvm.memset.p0.i64(ptr align 8 %7, i8 0, i64 168, i1 false)
  %8 = load ptr, ptr %3, align 8, !tbaa !3
  %9 = load ptr, ptr %5, align 8, !tbaa !87
  %10 = getelementptr inbounds nuw %struct.Sim_Man_t_, ptr %9, i32 0, i32 0
  store ptr %8, ptr %10, align 8, !tbaa !89
  %11 = load ptr, ptr %5, align 8, !tbaa !87
  %12 = getelementptr inbounds nuw %struct.Sim_Man_t_, ptr %11, i32 0, i32 0
  %13 = load ptr, ptr %12, align 8, !tbaa !89
  %14 = call i32 @Abc_NtkCiNum(ptr noundef %13)
  %15 = load ptr, ptr %5, align 8, !tbaa !87
  %16 = getelementptr inbounds nuw %struct.Sim_Man_t_, ptr %15, i32 0, i32 1
  store i32 %14, ptr %16, align 8, !tbaa !92
  %17 = load ptr, ptr %5, align 8, !tbaa !87
  %18 = getelementptr inbounds nuw %struct.Sim_Man_t_, ptr %17, i32 0, i32 0
  %19 = load ptr, ptr %18, align 8, !tbaa !89
  %20 = call i32 @Abc_NtkCoNum(ptr noundef %19)
  %21 = load ptr, ptr %5, align 8, !tbaa !87
  %22 = getelementptr inbounds nuw %struct.Sim_Man_t_, ptr %21, i32 0, i32 2
  store i32 %20, ptr %22, align 4, !tbaa !93
  %23 = load ptr, ptr %5, align 8, !tbaa !87
  %24 = getelementptr inbounds nuw %struct.Sim_Man_t_, ptr %23, i32 0, i32 4
  store i32 2048, ptr %24, align 4, !tbaa !94
  %25 = load ptr, ptr %5, align 8, !tbaa !87
  %26 = getelementptr inbounds nuw %struct.Sim_Man_t_, ptr %25, i32 0, i32 4
  %27 = load i32, ptr %26, align 4, !tbaa !94
  %28 = ashr i32 %27, 5
  %29 = load ptr, ptr %5, align 8, !tbaa !87
  %30 = getelementptr inbounds nuw %struct.Sim_Man_t_, ptr %29, i32 0, i32 4
  %31 = load i32, ptr %30, align 4, !tbaa !94
  %32 = and i32 %31, 31
  %33 = icmp sgt i32 %32, 0
  %34 = zext i1 %33 to i32
  %35 = add nsw i32 %28, %34
  %36 = load ptr, ptr %5, align 8, !tbaa !87
  %37 = getelementptr inbounds nuw %struct.Sim_Man_t_, ptr %36, i32 0, i32 5
  store i32 %35, ptr %37, align 8, !tbaa !95
  %38 = load ptr, ptr %3, align 8, !tbaa !3
  %39 = call i32 @Abc_NtkObjNumMax(ptr noundef %38)
  %40 = load ptr, ptr %5, align 8, !tbaa !87
  %41 = getelementptr inbounds nuw %struct.Sim_Man_t_, ptr %40, i32 0, i32 5
  %42 = load i32, ptr %41, align 8, !tbaa !95
  %43 = call ptr @Sim_UtilInfoAlloc(i32 noundef %39, i32 noundef %42, i32 noundef 0)
  %44 = load ptr, ptr %5, align 8, !tbaa !87
  %45 = getelementptr inbounds nuw %struct.Sim_Man_t_, ptr %44, i32 0, i32 6
  store ptr %43, ptr %45, align 8, !tbaa !96
  %46 = load i32, ptr %4, align 4, !tbaa !8
  %47 = load ptr, ptr %5, align 8, !tbaa !87
  %48 = getelementptr inbounds nuw %struct.Sim_Man_t_, ptr %47, i32 0, i32 3
  store i32 %46, ptr %48, align 8, !tbaa !97
  %49 = load ptr, ptr %5, align 8, !tbaa !87
  %50 = getelementptr inbounds nuw %struct.Sim_Man_t_, ptr %49, i32 0, i32 3
  %51 = load i32, ptr %50, align 8, !tbaa !97
  %52 = icmp ne i32 %51, 0
  br i1 %52, label %115, label %53

53:                                               ; preds = %2
  %54 = load ptr, ptr %3, align 8, !tbaa !3
  %55 = call i32 @Abc_NtkObjNumMax(ptr noundef %54)
  %56 = load ptr, ptr %5, align 8, !tbaa !87
  %57 = getelementptr inbounds nuw %struct.Sim_Man_t_, ptr %56, i32 0, i32 5
  %58 = load i32, ptr %57, align 8, !tbaa !95
  %59 = call ptr @Sim_UtilInfoAlloc(i32 noundef %55, i32 noundef %58, i32 noundef 0)
  %60 = load ptr, ptr %5, align 8, !tbaa !87
  %61 = getelementptr inbounds nuw %struct.Sim_Man_t_, ptr %60, i32 0, i32 7
  store ptr %59, ptr %61, align 8, !tbaa !98
  %62 = load ptr, ptr %3, align 8, !tbaa !3
  %63 = call i32 @Abc_NtkCiNum(ptr noundef %62)
  %64 = load ptr, ptr %5, align 8, !tbaa !87
  %65 = getelementptr inbounds nuw %struct.Sim_Man_t_, ptr %64, i32 0, i32 8
  store i32 %63, ptr %65, align 8, !tbaa !99
  %66 = load ptr, ptr %5, align 8, !tbaa !87
  %67 = getelementptr inbounds nuw %struct.Sim_Man_t_, ptr %66, i32 0, i32 8
  %68 = load i32, ptr %67, align 8, !tbaa !99
  %69 = ashr i32 %68, 5
  %70 = load ptr, ptr %5, align 8, !tbaa !87
  %71 = getelementptr inbounds nuw %struct.Sim_Man_t_, ptr %70, i32 0, i32 8
  %72 = load i32, ptr %71, align 8, !tbaa !99
  %73 = and i32 %72, 31
  %74 = icmp sgt i32 %73, 0
  %75 = zext i1 %74 to i32
  %76 = add nsw i32 %69, %75
  %77 = load ptr, ptr %5, align 8, !tbaa !87
  %78 = getelementptr inbounds nuw %struct.Sim_Man_t_, ptr %77, i32 0, i32 9
  store i32 %76, ptr %78, align 4, !tbaa !100
  %79 = load ptr, ptr %3, align 8, !tbaa !3
  %80 = call ptr @Sim_ComputeStrSupp(ptr noundef %79)
  %81 = load ptr, ptr %5, align 8, !tbaa !87
  %82 = getelementptr inbounds nuw %struct.Sim_Man_t_, ptr %81, i32 0, i32 10
  store ptr %80, ptr %82, align 8, !tbaa !101
  %83 = load ptr, ptr %5, align 8, !tbaa !87
  %84 = getelementptr inbounds nuw %struct.Sim_Man_t_, ptr %83, i32 0, i32 0
  %85 = load ptr, ptr %84, align 8, !tbaa !89
  %86 = call i32 @Abc_NtkCoNum(ptr noundef %85)
  %87 = load ptr, ptr %5, align 8, !tbaa !87
  %88 = getelementptr inbounds nuw %struct.Sim_Man_t_, ptr %87, i32 0, i32 9
  %89 = load i32, ptr %88, align 4, !tbaa !100
  %90 = call ptr @Sim_UtilInfoAlloc(i32 noundef %86, i32 noundef %89, i32 noundef 1)
  %91 = load ptr, ptr %5, align 8, !tbaa !87
  %92 = getelementptr inbounds nuw %struct.Sim_Man_t_, ptr %91, i32 0, i32 11
  store ptr %90, ptr %92, align 8, !tbaa !102
  %93 = load ptr, ptr %5, align 8, !tbaa !87
  %94 = getelementptr inbounds nuw %struct.Sim_Man_t_, ptr %93, i32 0, i32 9
  %95 = load i32, ptr %94, align 4, !tbaa !100
  %96 = sext i32 %95 to i64
  %97 = mul i64 %96, 4
  %98 = add i64 16, %97
  %99 = trunc i64 %98 to i32
  %100 = call ptr @Extra_MmFixedStart(i32 noundef %99)
  %101 = load ptr, ptr %5, align 8, !tbaa !87
  %102 = getelementptr inbounds nuw %struct.Sim_Man_t_, ptr %101, i32 0, i32 14
  store ptr %100, ptr %102, align 8, !tbaa !103
  %103 = call ptr @Vec_PtrAlloc(i32 noundef 100)
  %104 = load ptr, ptr %5, align 8, !tbaa !87
  %105 = getelementptr inbounds nuw %struct.Sim_Man_t_, ptr %104, i32 0, i32 15
  store ptr %103, ptr %105, align 8, !tbaa !104
  %106 = call ptr @Vec_IntAlloc(i32 noundef 100)
  %107 = load ptr, ptr %5, align 8, !tbaa !87
  %108 = getelementptr inbounds nuw %struct.Sim_Man_t_, ptr %107, i32 0, i32 16
  store ptr %106, ptr %108, align 8, !tbaa !105
  %109 = load ptr, ptr %5, align 8, !tbaa !87
  %110 = getelementptr inbounds nuw %struct.Sim_Man_t_, ptr %109, i32 0, i32 1
  %111 = load i32, ptr %110, align 8, !tbaa !92
  %112 = call ptr @Vec_VecStart(i32 noundef %111)
  %113 = load ptr, ptr %5, align 8, !tbaa !87
  %114 = getelementptr inbounds nuw %struct.Sim_Man_t_, ptr %113, i32 0, i32 12
  store ptr %112, ptr %114, align 8, !tbaa !106
  br label %115

115:                                              ; preds = %53, %2
  %116 = load ptr, ptr %5, align 8, !tbaa !87
  call void @llvm.lifetime.end.p0(i64 8, ptr %5) #10
  ret ptr %116
}