; Function Attrs: nounwind uwtable
define noalias noundef ptr @Sim_ManStart(ptr noundef %0, i32 noundef %1) local_unnamed_addr #0 {
  %calloc = tail call dereferenceable_or_null(168) ptr @calloc(i64 1, i64 168)
  store ptr %0, ptr %calloc, align 8, !tbaa !87
  %3 = getelementptr i8, ptr %0, i64 56
  %.val36 = load ptr, ptr %3, align 8, !tbaa !16
  %4 = getelementptr i8, ptr %.val36, i64 4
  %.val36.val = load i32, ptr %4, align 4, !tbaa !29
  %5 = getelementptr inbounds nuw i8, ptr %calloc, i64 8
  store i32 %.val36.val, ptr %5, align 8, !tbaa !90
  %6 = getelementptr i8, ptr %0, i64 64
  %.val38 = load ptr, ptr %6, align 8, !tbaa !32
  %7 = getelementptr i8, ptr %.val38, i64 4
  %.val38.val = load i32, ptr %7, align 4, !tbaa !29
  %8 = getelementptr inbounds nuw i8, ptr %calloc, i64 12
  store i32 %.val38.val, ptr %8, align 4, !tbaa !91
  %9 = getelementptr inbounds nuw i8, ptr %calloc, i64 20
  store i32 2048, ptr %9, align 4, !tbaa !92
  %10 = getelementptr inbounds nuw i8, ptr %calloc, i64 24
  store i32 64, ptr %10, align 8, !tbaa !93
  %11 = getelementptr i8, ptr %0, i64 32
  %.val40 = load ptr, ptr %11, align 8, !tbaa !35
  %12 = getelementptr i8, ptr %.val40, i64 4
  %.val40.val = load i32, ptr %12, align 4, !tbaa !29
  %13 = tail call ptr @Sim_UtilInfoAlloc(i32 noundef %.val40.val, i32 noundef 64, i32 noundef 0) #12
  %14 = getelementptr inbounds nuw i8, ptr %calloc, i64 32
  store ptr %13, ptr %14, align 8, !tbaa !94
  %15 = getelementptr inbounds nuw i8, ptr %calloc, i64 16
  store i32 %1, ptr %15, align 8, !tbaa !95
  %.not = icmp eq i32 %1, 0
  br i1 %.not, label %16, label %59

16:                                               ; preds = %2
  %.val39 = load ptr, ptr %11, align 8, !tbaa !35
  %17 = getelementptr i8, ptr %.val39, i64 4
  %.val39.val = load i32, ptr %17, align 4, !tbaa !29
  %18 = tail call ptr @Sim_UtilInfoAlloc(i32 noundef %.val39.val, i32 noundef 64, i32 noundef 0) #12
  %19 = getelementptr inbounds nuw i8, ptr %calloc, i64 40
  store ptr %18, ptr %19, align 8, !tbaa !96
  %.val = load ptr, ptr %3, align 8, !tbaa !16
  %20 = getelementptr i8, ptr %.val, i64 4
  %.val.val = load i32, ptr %20, align 4, !tbaa !29
  %21 = getelementptr inbounds nuw i8, ptr %calloc, i64 48
  store i32 %.val.val, ptr %21, align 8, !tbaa !97
  %22 = ashr i32 %.val.val, 5
  %23 = and i32 %.val.val, 31
  %24 = icmp ne i32 %23, 0
  %25 = zext i1 %24 to i32
  %26 = add nsw i32 %22, %25
  %27 = getelementptr inbounds nuw i8, ptr %calloc, i64 52
  store i32 %26, ptr %27, align 4, !tbaa !98
  %28 = tail call ptr @Sim_ComputeStrSupp(ptr noundef nonnull %0) #12
  %29 = getelementptr inbounds nuw i8, ptr %calloc, i64 56
  store ptr %28, ptr %29, align 8, !tbaa !99
  %.val37 = load ptr, ptr %6, align 8, !tbaa !32
  %30 = getelementptr i8, ptr %.val37, i64 4
  %.val37.val = load i32, ptr %30, align 4, !tbaa !29
  %31 = tail call ptr @Sim_UtilInfoAlloc(i32 noundef %.val37.val, i32 noundef %26, i32 noundef 1) #12
  %32 = getelementptr inbounds nuw i8, ptr %calloc, i64 64
  store ptr %31, ptr %32, align 8, !tbaa !100
  %33 = shl nsw i32 %26, 2
  %34 = add nsw i32 %33, 16
  %35 = tail call ptr @Extra_MmFixedStart(i32 noundef %34) #12
  %36 = getelementptr inbounds nuw i8, ptr %calloc, i64 88
  store ptr %35, ptr %36, align 8, !tbaa !101
  %37 = tail call noalias dereferenceable_or_null(16) ptr @malloc(i64 noundef 16) #13
  %38 = getelementptr inbounds nuw i8, ptr %37, i64 4
  store i32 0, ptr %38, align 4, !tbaa !29
  store i32 100, ptr %37, align 8, !tbaa !37
  %39 = tail call noalias dereferenceable_or_null(800) ptr @malloc(i64 noundef 800) #13
  %40 = getelementptr inbounds nuw i8, ptr %37, i64 8
  store ptr %39, ptr %40, align 8, !tbaa !38
  %41 = getelementptr inbounds nuw i8, ptr %calloc, i64 96
  store ptr %37, ptr %41, align 8, !tbaa !102
  %42 = tail call noalias dereferenceable_or_null(16) ptr @malloc(i64 noundef 16) #13
  %43 = getelementptr inbounds nuw i8, ptr %42, i64 4
  store i32 0, ptr %43, align 4, !tbaa !43
  store i32 100, ptr %42, align 8, !tbaa !41
  %44 = tail call noalias dereferenceable_or_null(400) ptr @malloc(i64 noundef 400) #13
  %45 = getelementptr inbounds nuw i8, ptr %42, i64 8
  store ptr %44, ptr %45, align 8, !tbaa !42
  %46 = getelementptr inbounds nuw i8, ptr %calloc, i64 104
  store ptr %42, ptr %46, align 8, !tbaa !103
  %47 = tail call noalias dereferenceable_or_null(16) ptr @malloc(i64 noundef 16) #13
  %48 = add i32 %.val36.val, -1
  %or.cond.i.i = icmp ult i32 %48, 7
  %spec.store.select.i.i = select i1 %or.cond.i.i, i32 8, i32 %.val36.val
  store i32 %spec.store.select.i.i, ptr %47, align 8, !tbaa !56
  %.not.i.i = icmp eq i32 %spec.store.select.i.i, 0
  br i1 %.not.i.i, label %Vec_VecAlloc.exit.i, label %49

49:                                               ; preds = %16
  %50 = sext i32 %spec.store.select.i.i to i64
  %51 = shl nsw i64 %50, 3
  %52 = tail call noalias ptr @malloc(i64 noundef %51) #13
  br label %Vec_VecAlloc.exit.i

Vec_VecAlloc.exit.i:                              ; preds = %49, %16
  %53 = phi ptr [ %52, %49 ], [ null, %16 ]
  %54 = getelementptr inbounds nuw i8, ptr %47, i64 8
  store ptr %53, ptr %54, align 8, !tbaa !58
  %55 = icmp sgt i32 %.val36.val, 0
  br i1 %55, label %.lr.ph.preheader.i, label %Vec_VecStart.exit

.lr.ph.preheader.i:                               ; preds = %Vec_VecAlloc.exit.i
  %wide.trip.count.i = zext nneg i32 %.val36.val to i64
  br label %.lr.ph.i

.lr.ph.i:                                         ; preds = %.lr.ph.i, %.lr.ph.preheader.i
  %indvars.iv.i = phi i64 [ 0, %.lr.ph.preheader.i ], [ %indvars.iv.next.i, %.lr.ph.i ]
  %calloc.i = tail call dereferenceable_or_null(16) ptr @calloc(i64 1, i64 16)
  %56 = getelementptr inbounds nuw ptr, ptr %53, i64 %indvars.iv.i
  store ptr %calloc.i, ptr %56, align 8, !tbaa !47
  %indvars.iv.next.i = add nuw nsw i64 %indvars.iv.i, 1
  %exitcond.not.i = icmp eq i64 %indvars.iv.next.i, %wide.trip.count.i
  br i1 %exitcond.not.i, label %Vec_VecStart.exit, label %.lr.ph.i, !llvm.loop !61

Vec_VecStart.exit:                                ; preds = %.lr.ph.i, %Vec_VecAlloc.exit.i
  %57 = getelementptr inbounds nuw i8, ptr %47, i64 4
  store i32 %.val36.val, ptr %57, align 4, !tbaa !59
  %58 = getelementptr inbounds nuw i8, ptr %calloc, i64 72
  store ptr %47, ptr %58, align 8, !tbaa !104
  br label %59

59:                                               ; preds = %Vec_VecStart.exit, %2
  ret ptr %calloc
}